target datalayout = "e-m:e-p270:32:32-p271:32:32-p272:64:64-i64:64-i128:128-f80:128-n8:16:32:64-S128"
target triple = "x86_64-pc-linux-gnu"

%"struct.google::protobuf::internal::ExtensionSet::Extension" = type { %union.anon.4, i8, i8, i8, i8, i32, ptr }
%union.anon.4 = type { i64 }

@_ZN6google8protobuf8internal14WireFormatLite23kMessageSetItemTagsSizeE = external constant i64, align 8

; Function Attrs: mustprogress nounwind uwtable
define linkonce_odr noundef i32 @_ZN6google8protobuf4Bits16Log2FloorNonZeroEj(i32 noundef %0) #4 comdat align 2 {
  %2 = alloca i32, align 4
  store i32 %0, ptr %2, align 4
  %3 = load i32, ptr %2, align 4
  %4 = call i32 @llvm.ctlz.i32(i32 %3, i1 true)
  %5 = xor i32 31, %4
  ret i32 %5
}

; Function Attrs: mustprogress uwtable
define linkonce_odr noundef i64 @_ZN6google8protobuf2io17CodedOutputStream12VarintSize32Ej(i32 noundef %0) #6 comdat align 2 {
  %2 = alloca i32, align 4
  %3 = alloca i32, align 4
  store i32 %0, ptr %2, align 4
  %4 = load i32, ptr %2, align 4
  %5 = or i32 %4, 1
  %6 = call noundef i32 @_ZN6google8protobuf4Bits16Log2FloorNonZeroEj(i32 noundef %5)
  store i32 %6, ptr %3, align 4
  %7 = load i32, ptr %3, align 4
  %8 = mul i32 %7, 9
  %9 = add i32 %8, 73
  %10 = udiv i32 %9, 64
  %11 = zext i32 %10 to i64
  ret i64 %11
}

; Function Attrs: mustprogress uwtable
define noundef i64 @_ZNK6google8protobuf8internal12ExtensionSet9Extension22MessageSetItemByteSizeEi(ptr noundef nonnull align 8 dereferenceable(24) %0, i32 noundef %1) #6 align 2 {
  %3 = alloca i64, align 8
  %4 = alloca ptr, align 8
  %5 = alloca i32, align 4
  %6 = alloca i64, align 8
  %7 = alloca i64, align 8
  store ptr %0, ptr %4, align 8
  store i32 %1, ptr %5, align 4
  %8 = load ptr, ptr %4, align 8
  %9 = getelementptr inbounds %"struct.google::protobuf::internal::ExtensionSet::Extension", ptr %8, i32 0, i32 1
  %10 = load i8, ptr %9, align 8
  %11 = zext i8 %10 to i32
  %12 = icmp ne i32 %11, 11
  br i1 %12, label %17, label %13

13:                                               ; preds = %2
  %14 = getelementptr inbounds %"struct.google::protobuf::internal::ExtensionSet::Extension", ptr %8, i32 0, i32 2
  %15 = load i8, ptr %14, align 1
  %16 = trunc i8 %15 to i1
  br i1 %16, label %17, label %20

17:                                               ; preds = %13, %2
  %18 = load i32, ptr %5, align 4
  %19 = call noundef i64 @_ZNK6google8protobuf8internal12ExtensionSet9Extension8ByteSizeEi(ptr noundef nonnull align 8 dereferenceable(24) %8, i32 noundef %18)
  store i64 %19, ptr %3, align 8
  br label %60

20:                                               ; preds = %13
  %21 = getelementptr inbounds %"struct.google::protobuf::internal::ExtensionSet::Extension", ptr %8, i32 0, i32 3
  %22 = load i8, ptr %21, align 2
  %23 = and i8 %22, 15
  %24 = trunc i8 %23 to i1
  br i1 %24, label %25, label %26

25:                                               ; preds = %20
  store i64 0, ptr %3, align 8
  br label %60

26:                                               ; preds = %20
  %27 = load i64, ptr @_ZN6google8protobuf8internal14WireFormatLite23kMessageSetItemTagsSizeE, align 8
  store i64 %27, ptr %6, align 8
  %28 = load i32, ptr %5, align 4
  %29 = call noundef i64 @_ZN6google8protobuf2io17CodedOutputStream12VarintSize32Ej(i32 noundef %28)
  %30 = load i64, ptr %6, align 8
  %31 = add i64 %30, %29
  store i64 %31, ptr %6, align 8
  store i64 0, ptr %7, align 8
  %32 = getelementptr inbounds %"struct.google::protobuf::internal::ExtensionSet::Extension", ptr %8, i32 0, i32 3
  %33 = load i8, ptr %32, align 2
  %34 = lshr i8 %33, 4
  %35 = trunc i8 %34 to i1
  br i1 %35, label %36, label %43

36:                                               ; preds = %26
  %37 = getelementptr inbounds %"struct.google::protobuf::internal::ExtensionSet::Extension", ptr %8, i32 0, i32 0
  %38 = load ptr, ptr %37, align 8
  %39 = load ptr, ptr %38, align 8
  %40 = getelementptr inbounds ptr, ptr %39, i64 11
  %41 = load ptr, ptr %40, align 8
  %42 = call noundef i64 %41(ptr noundef nonnull align 8 dereferenceable(8) %38)
  store i64 %42, ptr %7, align 8
  br label %50

43:                                               ; preds = %26
  %44 = getelementptr inbounds %"struct.google::protobuf::internal::ExtensionSet::Extension", ptr %8, i32 0, i32 0
  %45 = load ptr, ptr %44, align 8
  %46 = load ptr, ptr %45, align 8
  %47 = getelementptr inbounds ptr, ptr %46, i64 9
  %48 = load ptr, ptr %47, align 8
  %49 = call noundef i64 %48(ptr noundef nonnull align 8 dereferenceable(16) %45)
  store i64 %49, ptr %7, align 8
  br label %50

50:                                               ; preds = %43, %36
  %51 = load i64, ptr %7, align 8
  %52 = trunc i64 %51 to i32
  %53 = call noundef i64 @_ZN6google8protobuf2io17CodedOutputStream12VarintSize32Ej(i32 noundef %52)
  %54 = load i64, ptr %6, align 8
  %55 = add i64 %54, %53
  store i64 %55, ptr %6, align 8
  %56 = load i64, ptr %7, align 8
  %57 = load i64, ptr %6, align 8
  %58 = add i64 %57, %56
  store i64 %58, ptr %6, align 8
  %59 = load i64, ptr %6, align 8
  store i64 %59, ptr %3, align 8
  br label %60

60:                                               ; preds = %50, %25, %17
  %61 = load i64, ptr %3, align 8
  ret i64 %61
}