; Function Attrs: mustprogress uwtable
define noundef i64 @_ZNK6google8protobuf8internal12ExtensionSet9Extension22MessageSetItemByteSizeEi(ptr nocapture noundef nonnull align 8 dereferenceable(24) %0, i32 noundef %1) local_unnamed_addr #8 align 2 {
  %3 = getelementptr inbounds i8, ptr %0, i64 8
  %4 = load i8, ptr %3, align 8
  %.not = icmp eq i8 %4, 11
  br i1 %.not, label %5, label %9

5:                                                ; preds = %2
  %6 = getelementptr inbounds i8, ptr %0, i64 9
  %7 = load i8, ptr %6, align 1
  %8 = trunc i8 %7 to i1
  br i1 %8, label %9, label %11

9:                                                ; preds = %5, %2
  %10 = tail call noundef i64 @_ZNK6google8protobuf8internal12ExtensionSet9Extension8ByteSizeEi(ptr noundef nonnull align 8 dereferenceable(24) %0, i32 noundef %1)
  br label %47

11:                                               ; preds = %5
  %12 = getelementptr inbounds i8, ptr %0, i64 10
  %13 = load i8, ptr %12, align 2
  %14 = trunc i8 %13 to i1
  br i1 %14, label %47, label %15

15:                                               ; preds = %11
  %16 = load i64, ptr @_ZN6google8protobuf8internal14WireFormatLite23kMessageSetItemTagsSizeE, align 8
  %17 = or i32 %1, 1
  %18 = tail call range(i32 0, 33) i32 @llvm.ctlz.i32(i32 %17, i1 true)
  %19 = xor i32 %18, 31
  %20 = mul nuw nsw i32 %19, 9
  %21 = add nuw nsw i32 %20, 73
  %22 = lshr i32 %21, 6
  %23 = zext nneg i32 %22 to i64
  %24 = add i64 %16, %23
  %25 = and i8 %13, 16
  %.not10 = icmp eq i8 %25, 0
  %26 = load ptr, ptr %0, align 8
  %27 = load ptr, ptr %26, align 8
  br i1 %.not10, label %32, label %28

28:                                               ; preds = %15
  %29 = getelementptr inbounds i8, ptr %27, i64 88
  %30 = load ptr, ptr %29, align 8
  %31 = tail call noundef i64 %30(ptr noundef nonnull align 8 dereferenceable(8) %26)
  br label %36

32:                                               ; preds = %15
  %33 = getelementptr inbounds i8, ptr %27, i64 72
  %34 = load ptr, ptr %33, align 8
  %35 = tail call noundef i64 %34(ptr noundef nonnull align 8 dereferenceable(16) %26)
  br label %36

36:                                               ; preds = %32, %28
  %.0 = phi i64 [ %31, %28 ], [ %35, %32 ]
  %37 = trunc i64 %.0 to i32
  %38 = or i32 %37, 1
  %39 = tail call range(i32 0, 33) i32 @llvm.ctlz.i32(i32 %38, i1 true)
  %40 = xor i32 %39, 31
  %41 = mul nuw nsw i32 %40, 9
  %42 = add nuw nsw i32 %41, 73
  %43 = lshr i32 %42, 6
  %44 = zext nneg i32 %43 to i64
  %45 = add i64 %24, %.0
  %46 = add i64 %45, %44
  br label %47

47:                                               ; preds = %11, %36, %9
  %.09 = phi i64 [ %10, %9 ], [ %46, %36 ], [ 0, %11 ]
  ret i64 %.09
}